target datalayout = "e-m:e-p270:32:32-p271:32:32-p272:64:64-i64:64-i128:128-f80:128-n8:16:32:64-S128"
target triple = "x86_64-unknown-linux-gnu"

@.str.2 = private unnamed_addr constant [32 x i8] c"<fixme: long message discarded>\00", align 1

; Function Attrs: mustprogress uwtable
define void @_ZN6Assimp6Logger4infoEPKc(ptr noundef nonnull align 8 dereferenceable(12) %this, ptr noundef %message) #6 align 2 {
entry:
  %this.addr = alloca ptr, align 8
  %message.addr = alloca ptr, align 8
  store ptr %this, ptr %this.addr, align 8
  store ptr %message, ptr %message.addr, align 8
  %this1 = load ptr, ptr %this.addr, align 8
  %0 = load ptr, ptr %message.addr, align 8
  %call = call i64 @strlen(ptr noundef %0) #14
  %cmp = icmp ugt i64 %call, 1024
  br i1 %cmp, label %if.then, label %if.end

if.then:                                          ; preds = %entry
  %vtable = load ptr, ptr %this1, align 8
  %vfn = getelementptr inbounds ptr, ptr %vtable, i64 6
  %1 = load ptr, ptr %vfn, align 8
  call void %1(ptr noundef nonnull align 8 dereferenceable(12) %this1, ptr noundef @.str.2)
  br label %return

if.end:                                           ; preds = %entry
  %2 = load ptr, ptr %message.addr, align 8
  %vtable2 = load ptr, ptr %this1, align 8
  %vfn3 = getelementptr inbounds ptr, ptr %vtable2, i64 6
  %3 = load ptr, ptr %vfn3, align 8
  call void %3(ptr noundef nonnull align 8 dereferenceable(12) %this1, ptr noundef %2)
  br label %return

return:                                           ; preds = %if.end, %if.then
  ret void
}